target datalayout = "e-m:e-p270:32:32-p271:32:32-p272:64:64-i64:64-i128:128-f80:128-n8:16:32:64-S128"
target triple = "x86_64-pc-linux-gnu"

; Function Attrs: nounwind uwtable
define i32 @ff_http_averror(i32 noundef %0, i32 noundef %1) #0 {
  %3 = alloca i32, align 4
  %4 = alloca i32, align 4
  %5 = alloca i32, align 4
  store i32 %0, ptr %4, align 4, !tbaa !34
  store i32 %1, ptr %5, align 4, !tbaa !34
  %6 = load i32, ptr %4, align 4, !tbaa !34
  switch i32 %6, label %12 [
    i32 400, label %7
    i32 401, label %8
    i32 403, label %9
    i32 404, label %10
    i32 429, label %11
  ]

7:                                                ; preds = %2
  store i32 -808465656, ptr %3, align 4
  br label %26

8:                                                ; preds = %2
  store i32 -825242872, ptr %3, align 4
  br label %26

9:                                                ; preds = %2
  store i32 -858797304, ptr %3, align 4
  br label %26

10:                                               ; preds = %2
  store i32 -875574520, ptr %3, align 4
  br label %26

11:                                               ; preds = %2
  store i32 -959591672, ptr %3, align 4
  br label %26

12:                                               ; preds = %2
  br label %13

13:                                               ; preds = %12
  %14 = load i32, ptr %4, align 4, !tbaa !34
  %15 = icmp sge i32 %14, 400
  br i1 %15, label %16, label %20

16:                                               ; preds = %13
  %17 = load i32, ptr %4, align 4, !tbaa !34
  %18 = icmp sle i32 %17, 499
  br i1 %18, label %19, label %20

19:                                               ; preds = %16
  store i32 -1482175736, ptr %3, align 4
  br label %26

20:                                               ; preds = %16, %13
  %21 = load i32, ptr %4, align 4, !tbaa !34
  %22 = icmp sge i32 %21, 500
  br i1 %22, label %23, label %24

23:                                               ; preds = %20
  store i32 -1482175992, ptr %3, align 4
  br label %26

24:                                               ; preds = %20
  %25 = load i32, ptr %5, align 4, !tbaa !34
  store i32 %25, ptr %3, align 4
  br label %26

26:                                               ; preds = %24, %23, %19, %11, %10, %9, %8, %7
  %27 = load i32, ptr %3, align 4
  ret i32 %27
}