; Function Attrs: mustprogress nofree norecurse nosync nounwind willreturn memory(none) uwtable
define noundef i32 @ff_http_averror(i32 noundef %0, i32 noundef %1) local_unnamed_addr #6 {
  switch i32 %0, label %7 [
    i32 400, label %11
    i32 401, label %3
    i32 403, label %4
    i32 404, label %5
    i32 429, label %6
  ]

3:                                                ; preds = %2
  br label %11

4:                                                ; preds = %2
  br label %11

5:                                                ; preds = %2
  br label %11

6:                                                ; preds = %2
  br label %11

7:                                                ; preds = %2
  %8 = add i32 %0, -400
  %or.cond = icmp ult i32 %8, 100
  br i1 %or.cond, label %11, label %9

9:                                                ; preds = %7
  %10 = icmp sgt i32 %0, 499
  %. = select i1 %10, i32 -1482175992, i32 %1
  br label %11

11:                                               ; preds = %9, %7, %2, %6, %5, %4, %3
  %.0 = phi i32 [ -959591672, %6 ], [ -875574520, %5 ], [ -858797304, %4 ], [ -825242872, %3 ], [ -808465656, %2 ], [ -1482175736, %7 ], [ %., %9 ]
  ret i32 %.0
}